
test6_modulo.elf:     file format elf32-avr


Disassembly of section .text:

00000000 <__vectors>:
   0:	0c 94 34 00 	jmp	0x68	; 0x68 <__ctors_end>
   4:	0c 94 3e 00 	jmp	0x7c	; 0x7c <__bad_interrupt>
   8:	0c 94 3e 00 	jmp	0x7c	; 0x7c <__bad_interrupt>
   c:	0c 94 3e 00 	jmp	0x7c	; 0x7c <__bad_interrupt>
  10:	0c 94 3e 00 	jmp	0x7c	; 0x7c <__bad_interrupt>
  14:	0c 94 3e 00 	jmp	0x7c	; 0x7c <__bad_interrupt>
  18:	0c 94 3e 00 	jmp	0x7c	; 0x7c <__bad_interrupt>
  1c:	0c 94 3e 00 	jmp	0x7c	; 0x7c <__bad_interrupt>
  20:	0c 94 3e 00 	jmp	0x7c	; 0x7c <__bad_interrupt>
  24:	0c 94 3e 00 	jmp	0x7c	; 0x7c <__bad_interrupt>
  28:	0c 94 3e 00 	jmp	0x7c	; 0x7c <__bad_interrupt>
  2c:	0c 94 3e 00 	jmp	0x7c	; 0x7c <__bad_interrupt>
  30:	0c 94 3e 00 	jmp	0x7c	; 0x7c <__bad_interrupt>
  34:	0c 94 3e 00 	jmp	0x7c	; 0x7c <__bad_interrupt>
  38:	0c 94 3e 00 	jmp	0x7c	; 0x7c <__bad_interrupt>
  3c:	0c 94 3e 00 	jmp	0x7c	; 0x7c <__bad_interrupt>
  40:	0c 94 3e 00 	jmp	0x7c	; 0x7c <__bad_interrupt>
  44:	0c 94 3e 00 	jmp	0x7c	; 0x7c <__bad_interrupt>
  48:	0c 94 3e 00 	jmp	0x7c	; 0x7c <__bad_interrupt>
  4c:	0c 94 3e 00 	jmp	0x7c	; 0x7c <__bad_interrupt>
  50:	0c 94 3e 00 	jmp	0x7c	; 0x7c <__bad_interrupt>
  54:	0c 94 3e 00 	jmp	0x7c	; 0x7c <__bad_interrupt>
  58:	0c 94 3e 00 	jmp	0x7c	; 0x7c <__bad_interrupt>
  5c:	0c 94 3e 00 	jmp	0x7c	; 0x7c <__bad_interrupt>
  60:	0c 94 3e 00 	jmp	0x7c	; 0x7c <__bad_interrupt>
  64:	0c 94 3e 00 	jmp	0x7c	; 0x7c <__bad_interrupt>

00000068 <__ctors_end>:
  68:	11 24       	eor	r1, r1
  6a:	1f be       	out	0x3f, r1	; 63
  6c:	cf ef       	ldi	r28, 0xFF	; 255
  6e:	d8 e0       	ldi	r29, 0x08	; 8
  70:	de bf       	out	0x3e, r29	; 62
  72:	cd bf       	out	0x3d, r28	; 61
  74:	0e 94 40 00 	call	0x80	; 0x80 <main>
  78:	0c 94 2b 01 	jmp	0x256	; 0x256 <_exit>

0000007c <__bad_interrupt>:
  7c:	0c 94 00 00 	jmp	0	; 0x0 <__vectors>

00000080 <main>:
  80:	0f ef       	ldi	r16, 0xFF	; 255
  82:	0d bf       	out	0x3d, r16	; 61
  84:	08 e0       	ldi	r16, 0x08	; 8
  86:	0e bf       	out	0x3e, r16	; 62
  88:	34 d0       	rcall	.+104    	; 0xf2 <uart_init>
  8a:	49 d0       	rcall	.+146    	; 0x11e <send_start_msg>
  8c:	02 ed       	ldi	r16, 0xD2	; 210
  8e:	14 e0       	ldi	r17, 0x04	; 4
  90:	28 e3       	ldi	r18, 0x38	; 56
  92:	30 e0       	ldi	r19, 0x00	; 0
  94:	20 2f       	mov	r18, r16
  96:	31 2f       	mov	r19, r17
  98:	48 e3       	ldi	r20, 0x38	; 56
  9a:	50 e0       	ldi	r21, 0x00	; 0
  9c:	0c d0       	rcall	.+24     	; 0xb6 <div16>
  9e:	46 2f       	mov	r20, r22
  a0:	57 2f       	mov	r21, r23
  a2:	6e d0       	rcall	.+220    	; 0x180 <send_result_msg>
  a4:	84 2f       	mov	r24, r20
  a6:	95 2f       	mov	r25, r21
  a8:	ab d0       	rcall	.+342    	; 0x200 <send_number_16bit>
  aa:	8d e0       	ldi	r24, 0x0D	; 13
  ac:	2f d0       	rcall	.+94     	; 0x10c <uart_transmit>
  ae:	8a e0       	ldi	r24, 0x0A	; 10
  b0:	2d d0       	rcall	.+90     	; 0x10c <uart_transmit>
  b2:	7d d0       	rcall	.+250    	; 0x1ae <send_success_msg>

000000b4 <fim>:
  b4:	ff cf       	rjmp	.-2      	; 0xb4 <fim>

000000b6 <div16>:
  b6:	0f 93       	push	r16
  b8:	41 15       	cp	r20, r1
  ba:	51 05       	cpc	r21, r1
  bc:	a1 f0       	breq	.+40     	; 0xe6 <div16_by_zero>
  be:	66 27       	eor	r22, r22
  c0:	77 27       	eor	r23, r23
  c2:	01 e1       	ldi	r16, 0x11	; 17

000000c4 <div16_loop>:
  c4:	22 1f       	adc	r18, r18
  c6:	33 1f       	adc	r19, r19
  c8:	66 1f       	adc	r22, r22
  ca:	77 1f       	adc	r23, r23
  cc:	64 17       	cp	r22, r20
  ce:	75 07       	cpc	r23, r21
  d0:	10 f0       	brcs	.+4      	; 0xd6 <div16_skip>
  d2:	64 1b       	sub	r22, r20
  d4:	75 0b       	sbc	r23, r21

000000d6 <div16_skip>:
  d6:	0a 95       	dec	r16
  d8:	a9 f7       	brne	.-22     	; 0xc4 <div16_loop>
  da:	20 95       	com	r18
  dc:	30 95       	com	r19
  de:	82 2f       	mov	r24, r18
  e0:	93 2f       	mov	r25, r19
  e2:	0f 91       	pop	r16
  e4:	08 95       	ret

000000e6 <div16_by_zero>:
  e6:	8f ef       	ldi	r24, 0xFF	; 255
  e8:	9f ef       	ldi	r25, 0xFF	; 255
  ea:	62 2f       	mov	r22, r18
  ec:	73 2f       	mov	r23, r19
  ee:	0f 91       	pop	r16
  f0:	08 95       	ret

000000f2 <uart_init>:
  f2:	00 e0       	ldi	r16, 0x00	; 0
  f4:	00 93 c5 00 	sts	0x00C5, r16	; 0x8000c5 <__TEXT_REGION_LENGTH__+0x7f80c5>
  f8:	08 e0       	ldi	r16, 0x08	; 8
  fa:	00 93 c4 00 	sts	0x00C4, r16	; 0x8000c4 <__TEXT_REGION_LENGTH__+0x7f80c4>
  fe:	08 e0       	ldi	r16, 0x08	; 8
 100:	00 93 c1 00 	sts	0x00C1, r16	; 0x8000c1 <__TEXT_REGION_LENGTH__+0x7f80c1>
 104:	06 e0       	ldi	r16, 0x06	; 6
 106:	00 93 c2 00 	sts	0x00C2, r16	; 0x8000c2 <__TEXT_REGION_LENGTH__+0x7f80c2>
 10a:	08 95       	ret

0000010c <uart_transmit>:
 10c:	9f 93       	push	r25

0000010e <uart_wait>:
 10e:	90 91 c0 00 	lds	r25, 0x00C0	; 0x8000c0 <__TEXT_REGION_LENGTH__+0x7f80c0>
 112:	95 ff       	sbrs	r25, 5
 114:	fc cf       	rjmp	.-8      	; 0x10e <uart_wait>
 116:	80 93 c6 00 	sts	0x00C6, r24	; 0x8000c6 <__TEXT_REGION_LENGTH__+0x7f80c6>
 11a:	9f 91       	pop	r25
 11c:	08 95       	ret

0000011e <send_start_msg>:
 11e:	84 e5       	ldi	r24, 0x54	; 84
 120:	f5 df       	rcall	.-22     	; 0x10c <uart_transmit>
 122:	85 e6       	ldi	r24, 0x65	; 101
 124:	f3 df       	rcall	.-26     	; 0x10c <uart_transmit>
 126:	83 e7       	ldi	r24, 0x73	; 115
 128:	f1 df       	rcall	.-30     	; 0x10c <uart_transmit>
 12a:	84 e7       	ldi	r24, 0x74	; 116
 12c:	ef df       	rcall	.-34     	; 0x10c <uart_transmit>
 12e:	85 e6       	ldi	r24, 0x65	; 101
 130:	ed df       	rcall	.-38     	; 0x10c <uart_transmit>
 132:	80 e2       	ldi	r24, 0x20	; 32
 134:	eb df       	rcall	.-42     	; 0x10c <uart_transmit>
 136:	86 e3       	ldi	r24, 0x36	; 54
 138:	e9 df       	rcall	.-46     	; 0x10c <uart_transmit>
 13a:	8a e3       	ldi	r24, 0x3A	; 58
 13c:	e7 df       	rcall	.-50     	; 0x10c <uart_transmit>
 13e:	80 e2       	ldi	r24, 0x20	; 32
 140:	e5 df       	rcall	.-54     	; 0x10c <uart_transmit>
 142:	81 e3       	ldi	r24, 0x31	; 49
 144:	e3 df       	rcall	.-58     	; 0x10c <uart_transmit>
 146:	82 e3       	ldi	r24, 0x32	; 50
 148:	e1 df       	rcall	.-62     	; 0x10c <uart_transmit>
 14a:	83 e3       	ldi	r24, 0x33	; 51
 14c:	df df       	rcall	.-66     	; 0x10c <uart_transmit>
 14e:	84 e3       	ldi	r24, 0x34	; 52
 150:	dd df       	rcall	.-70     	; 0x10c <uart_transmit>
 152:	80 e2       	ldi	r24, 0x20	; 32
 154:	db df       	rcall	.-74     	; 0x10c <uart_transmit>
 156:	85 e2       	ldi	r24, 0x25	; 37
 158:	d9 df       	rcall	.-78     	; 0x10c <uart_transmit>
 15a:	80 e2       	ldi	r24, 0x20	; 32
 15c:	d7 df       	rcall	.-82     	; 0x10c <uart_transmit>
 15e:	85 e3       	ldi	r24, 0x35	; 53
 160:	d5 df       	rcall	.-86     	; 0x10c <uart_transmit>
 162:	86 e3       	ldi	r24, 0x36	; 54
 164:	d3 df       	rcall	.-90     	; 0x10c <uart_transmit>
 166:	80 e2       	ldi	r24, 0x20	; 32
 168:	d1 df       	rcall	.-94     	; 0x10c <uart_transmit>
 16a:	8d e3       	ldi	r24, 0x3D	; 61
 16c:	cf df       	rcall	.-98     	; 0x10c <uart_transmit>
 16e:	80 e2       	ldi	r24, 0x20	; 32
 170:	cd df       	rcall	.-102    	; 0x10c <uart_transmit>
 172:	8f e3       	ldi	r24, 0x3F	; 63
 174:	cb df       	rcall	.-106    	; 0x10c <uart_transmit>
 176:	8d e0       	ldi	r24, 0x0D	; 13
 178:	c9 df       	rcall	.-110    	; 0x10c <uart_transmit>
 17a:	8a e0       	ldi	r24, 0x0A	; 10
 17c:	c7 df       	rcall	.-114    	; 0x10c <uart_transmit>
 17e:	08 95       	ret

00000180 <send_result_msg>:
 180:	82 e5       	ldi	r24, 0x52	; 82
 182:	c4 df       	rcall	.-120    	; 0x10c <uart_transmit>
 184:	85 e6       	ldi	r24, 0x65	; 101
 186:	c2 df       	rcall	.-124    	; 0x10c <uart_transmit>
 188:	83 e7       	ldi	r24, 0x73	; 115
 18a:	c0 df       	rcall	.-128    	; 0x10c <uart_transmit>
 18c:	85 e7       	ldi	r24, 0x75	; 117
 18e:	be df       	rcall	.-132    	; 0x10c <uart_transmit>
 190:	8c e6       	ldi	r24, 0x6C	; 108
 192:	bc df       	rcall	.-136    	; 0x10c <uart_transmit>
 194:	84 e7       	ldi	r24, 0x74	; 116
 196:	ba df       	rcall	.-140    	; 0x10c <uart_transmit>
 198:	81 e6       	ldi	r24, 0x61	; 97
 19a:	b8 df       	rcall	.-144    	; 0x10c <uart_transmit>
 19c:	84 e6       	ldi	r24, 0x64	; 100
 19e:	b6 df       	rcall	.-148    	; 0x10c <uart_transmit>
 1a0:	8f e6       	ldi	r24, 0x6F	; 111
 1a2:	b4 df       	rcall	.-152    	; 0x10c <uart_transmit>
 1a4:	8a e3       	ldi	r24, 0x3A	; 58
 1a6:	b2 df       	rcall	.-156    	; 0x10c <uart_transmit>
 1a8:	80 e2       	ldi	r24, 0x20	; 32
 1aa:	b0 df       	rcall	.-160    	; 0x10c <uart_transmit>
 1ac:	08 95       	ret

000001ae <send_success_msg>:
 1ae:	8f e4       	ldi	r24, 0x4F	; 79
 1b0:	ad df       	rcall	.-166    	; 0x10c <uart_transmit>
 1b2:	8b e4       	ldi	r24, 0x4B	; 75
 1b4:	ab df       	rcall	.-170    	; 0x10c <uart_transmit>
 1b6:	80 e2       	ldi	r24, 0x20	; 32
 1b8:	a9 df       	rcall	.-174    	; 0x10c <uart_transmit>
 1ba:	8d e2       	ldi	r24, 0x2D	; 45
 1bc:	a7 df       	rcall	.-178    	; 0x10c <uart_transmit>
 1be:	80 e2       	ldi	r24, 0x20	; 32
 1c0:	a5 df       	rcall	.-182    	; 0x10c <uart_transmit>
 1c2:	84 e5       	ldi	r24, 0x54	; 84
 1c4:	a3 df       	rcall	.-186    	; 0x10c <uart_transmit>
 1c6:	85 e6       	ldi	r24, 0x65	; 101
 1c8:	a1 df       	rcall	.-190    	; 0x10c <uart_transmit>
 1ca:	83 e7       	ldi	r24, 0x73	; 115
 1cc:	9f df       	rcall	.-194    	; 0x10c <uart_transmit>
 1ce:	84 e7       	ldi	r24, 0x74	; 116
 1d0:	9d df       	rcall	.-198    	; 0x10c <uart_transmit>
 1d2:	85 e6       	ldi	r24, 0x65	; 101
 1d4:	9b df       	rcall	.-202    	; 0x10c <uart_transmit>
 1d6:	80 e2       	ldi	r24, 0x20	; 32
 1d8:	99 df       	rcall	.-206    	; 0x10c <uart_transmit>
 1da:	80 e7       	ldi	r24, 0x70	; 112
 1dc:	97 df       	rcall	.-210    	; 0x10c <uart_transmit>
 1de:	81 e6       	ldi	r24, 0x61	; 97
 1e0:	95 df       	rcall	.-214    	; 0x10c <uart_transmit>
 1e2:	83 e7       	ldi	r24, 0x73	; 115
 1e4:	93 df       	rcall	.-218    	; 0x10c <uart_transmit>
 1e6:	83 e7       	ldi	r24, 0x73	; 115
 1e8:	91 df       	rcall	.-222    	; 0x10c <uart_transmit>
 1ea:	8f e6       	ldi	r24, 0x6F	; 111
 1ec:	8f df       	rcall	.-226    	; 0x10c <uart_transmit>
 1ee:	85 e7       	ldi	r24, 0x75	; 117
 1f0:	8d df       	rcall	.-230    	; 0x10c <uart_transmit>
 1f2:	81 e2       	ldi	r24, 0x21	; 33
 1f4:	8b df       	rcall	.-234    	; 0x10c <uart_transmit>
 1f6:	8d e0       	ldi	r24, 0x0D	; 13
 1f8:	89 df       	rcall	.-238    	; 0x10c <uart_transmit>
 1fa:	8a e0       	ldi	r24, 0x0A	; 10
 1fc:	87 df       	rcall	.-242    	; 0x10c <uart_transmit>
 1fe:	08 95       	ret

00000200 <send_number_16bit>:
 200:	4f 93       	push	r20
 202:	5f 93       	push	r21
 204:	6f 93       	push	r22
 206:	7f 93       	push	r23
 208:	0f 93       	push	r16
 20a:	1f 93       	push	r17
 20c:	2f 93       	push	r18
 20e:	3f 93       	push	r19
 210:	48 2f       	mov	r20, r24
 212:	59 2f       	mov	r21, r25
 214:	4a 30       	cpi	r20, 0x0A	; 10
 216:	10 f0       	brcs	.+4      	; 0x21c <print_single_digit>
 218:	50 30       	cpi	r21, 0x00	; 0
 21a:	21 f4       	brne	.+8      	; 0x224 <print_two_digits>

0000021c <print_single_digit>:
 21c:	84 2f       	mov	r24, r20
 21e:	80 5d       	subi	r24, 0xD0	; 208
 220:	75 df       	rcall	.-278    	; 0x10c <uart_transmit>
 222:	10 c0       	rjmp	.+32     	; 0x244 <number_done>

00000224 <print_two_digits>:
 224:	0a e0       	ldi	r16, 0x0A	; 10
 226:	11 27       	eor	r17, r17
 228:	22 27       	eor	r18, r18

0000022a <div_10_loop>:
 22a:	40 17       	cp	r20, r16
 22c:	51 07       	cpc	r21, r17
 22e:	20 f0       	brcs	.+8      	; 0x238 <print_units>
 230:	40 1b       	sub	r20, r16
 232:	51 0b       	sbc	r21, r17
 234:	23 95       	inc	r18
 236:	f9 cf       	rjmp	.-14     	; 0x22a <div_10_loop>

00000238 <print_units>:
 238:	82 2f       	mov	r24, r18
 23a:	80 5d       	subi	r24, 0xD0	; 208
 23c:	67 df       	rcall	.-306    	; 0x10c <uart_transmit>
 23e:	84 2f       	mov	r24, r20
 240:	80 5d       	subi	r24, 0xD0	; 208
 242:	64 df       	rcall	.-312    	; 0x10c <uart_transmit>

00000244 <number_done>:
 244:	3f 91       	pop	r19
 246:	2f 91       	pop	r18
 248:	1f 91       	pop	r17
 24a:	0f 91       	pop	r16
 24c:	7f 91       	pop	r23
 24e:	6f 91       	pop	r22
 250:	5f 91       	pop	r21
 252:	4f 91       	pop	r20
 254:	08 95       	ret

00000256 <_exit>:
 256:	f8 94       	cli

00000258 <__stop_program>:
 258:	ff cf       	rjmp	.-2      	; 0x258 <__stop_program>
